target datalayout = "e-m:e-p270:32:32-p271:32:32-p272:64:64-i64:64-i128:128-f80:128-n8:16:32:64-S128"
target triple = "x86_64-pc-linux-gnu"

%"class.cv::Mat" = type { i32, i32, i32, i32, ptr, ptr, ptr, ptr, ptr, ptr, %"struct.cv::MatSize", %"struct.cv::MatStep" }
%"struct.cv::MatSize" = type { ptr }
%"struct.cv::MatStep" = type { ptr, [2 x i64] }

; Function Attrs: inlinehint mustprogress nounwind uwtable
define linkonce_odr hidden noundef i32 @_ZNK2cv3Mat5depthEv(ptr noundef nonnull align 8 dereferenceable(96) %0) #10 comdat align 2 {
  %2 = alloca ptr, align 8
  store ptr %0, ptr %2, align 8, !tbaa !156
  %3 = load ptr, ptr %2, align 8
  %4 = getelementptr inbounds nuw %"class.cv::Mat", ptr %3, i32 0, i32 0
  %5 = load i32, ptr %4, align 8, !tbaa !330
  %6 = and i32 %5, 7
  ret i32 %6
}

; Function Attrs: inlinehint mustprogress uwtable
define internal noundef zeroext i1 @_ZN2cv3dnn14dnn4_v20241223L12isAlignedMatERKNS_3MatE(ptr noundef nonnull align 8 dereferenceable(96) %0) #9 {
  %2 = alloca ptr, align 8
  %3 = alloca i32, align 4
  %4 = alloca i32, align 4
  store ptr %0, ptr %2, align 8, !tbaa !156
  call void @llvm.lifetime.start.p0(i64 4, ptr %3) #3
  %5 = load ptr, ptr %2, align 8, !tbaa !156
  %6 = call noundef i32 @_ZNK2cv3Mat5depthEv(ptr noundef nonnull align 8 dereferenceable(96) %5)
  store i32 %6, ptr %3, align 4, !tbaa !8
  call void @llvm.lifetime.start.p0(i64 4, ptr %4) #3
  %7 = load i32, ptr %3, align 4, !tbaa !8
  %8 = and i32 %7, 7
  %9 = mul nsw i32 %8, 4
  %10 = ashr i32 675553809, %9
  %11 = and i32 %10, 15
  store i32 %11, ptr %4, align 4, !tbaa !8
  %12 = load ptr, ptr %2, align 8, !tbaa !156
  %13 = getelementptr inbounds nuw %"class.cv::Mat", ptr %12, i32 0, i32 4
  %14 = load ptr, ptr %13, align 8, !tbaa !149
  %15 = ptrtoint ptr %14 to i64
  %16 = load i32, ptr %4, align 4, !tbaa !8
  %17 = sub nsw i32 %16, 1
  %18 = sext i32 %17 to i64
  %19 = and i64 %15, %18
  %20 = icmp eq i64 %19, 0
  call void @llvm.lifetime.end.p0(i64 4, ptr %4) #3
  call void @llvm.lifetime.end.p0(i64 4, ptr %3) #3
  ret i1 %20
}

; Function Attrs: mustprogress uwtable
define hidden void @_ZN2cv3dnn14dnn4_v2024122316getTensorContentERKN17opencv_tensorflow11TensorProtoEb(ptr dead_on_unwind noalias writable sret(%"class.cv::Mat") align 8 %0, ptr noundef nonnull align 8 dereferenceable(224) %1, i1 noundef zeroext %2) #4 personality ptr @__gxx_personality_v0 {
  %4 = alloca ptr, align 8
  %5 = alloca ptr, align 8
  %6 = alloca i8, align 1
  %7 = alloca %"class.cv::Mat", align 8
  %8 = alloca ptr, align 8
  %9 = alloca i32, align 4
  %10 = alloca i32, align 4
  store ptr %0, ptr %4, align 8
  store ptr %1, ptr %5, align 8, !tbaa !141
  %11 = zext i1 %2 to i8
  store i8 %11, ptr %6, align 1, !tbaa !86
  call void @llvm.lifetime.start.p0(i64 96, ptr %7) #3
  %12 = load ptr, ptr %5, align 8, !tbaa !141
  call void @_ZN2cv3dnn14dnn4_v20241223L20getTensorContentRef_ERKN17opencv_tensorflow11TensorProtoE(ptr dead_on_unwind writable sret(%"class.cv::Mat") align 8 %7, ptr noundef nonnull align 8 dereferenceable(224) %12)
  %13 = load i8, ptr %6, align 1, !tbaa !86, !range !88, !noundef !89
  %14 = trunc i8 %13 to i1
  br i1 %14, label %18, label %15

15:                                               ; preds = %3
  %16 = invoke noundef zeroext i1 @_ZN2cv3dnn14dnn4_v20241223L12isAlignedMatERKNS_3MatE(ptr noundef nonnull align 8 dereferenceable(96) %7)
          to label %17 unwind label %20

17:                                               ; preds = %15
  br i1 %16, label %24, label %18

18:                                               ; preds = %17, %3
  invoke void @_ZNK2cv3Mat5cloneEv(ptr dead_on_unwind writable sret(%"class.cv::Mat") align 8 %0, ptr noundef nonnull align 8 dereferenceable(96) %7)
          to label %19 unwind label %20

19:                                               ; preds = %18
  store i32 1, ptr %10, align 4
  br label %25

20:                                               ; preds = %18, %15
  %21 = landingpad { ptr, i32 }
          cleanup
  %22 = extractvalue { ptr, i32 } %21, 0
  store ptr %22, ptr %8, align 8
  %23 = extractvalue { ptr, i32 } %21, 1
  store i32 %23, ptr %9, align 4
  call void @_ZN2cv3MatD1Ev(ptr noundef nonnull align 8 dereferenceable(96) %7) #3
  call void @llvm.lifetime.end.p0(i64 96, ptr %7) #3
  br label %26

24:                                               ; preds = %17
  call void @_ZN2cv3MatC1EOS0_(ptr noundef nonnull align 8 dereferenceable(96) %0, ptr noundef nonnull align 8 dereferenceable(96) %7) #3
  store i32 1, ptr %10, align 4
  br label %25

25:                                               ; preds = %24, %19
  call void @_ZN2cv3MatD1Ev(ptr noundef nonnull align 8 dereferenceable(96) %7) #3
  call void @llvm.lifetime.end.p0(i64 96, ptr %7) #3
  ret void

26:                                               ; preds = %20
  %27 = load ptr, ptr %8, align 8
  %28 = load i32, ptr %9, align 4
  %29 = insertvalue { ptr, i32 } poison, ptr %27, 0
  %30 = insertvalue { ptr, i32 } %29, i32 %28, 1
  resume { ptr, i32 } %30
}