; Function Attrs: mustprogress uwtable
define hidden void @_ZN2cv3dnn14dnn4_v2024122316getTensorContentERKN17opencv_tensorflow11TensorProtoEb(ptr dead_on_unwind noalias writable sret(%"class.cv::Mat") align 8 %0, ptr noundef nonnull readonly align 8 captures(none) dereferenceable(224) %1, i1 noundef zeroext %2) local_unnamed_addr #3 personality ptr @__gxx_personality_v0 {
  %4 = alloca %"class.cv::Mat", align 8
  call void @llvm.lifetime.start.p0(i64 96, ptr nonnull %4) #25
  call fastcc void @_ZN2cv3dnn14dnn4_v20241223L20getTensorContentRef_ERKN17opencv_tensorflow11TensorProtoE(ptr dead_on_unwind noalias writable align 8 %4, ptr noundef nonnull align 8 dereferenceable(224) %1)
  br i1 %2, label %16, label %5

5:                                                ; preds = %3
  %.val = load i32, ptr %4, align 8, !tbaa !284
  %6 = getelementptr inbounds nuw i8, ptr %4, i64 16
  %.val3 = load ptr, ptr %6, align 8, !tbaa !291
  %7 = shl i32 %.val, 2
  %8 = and i32 %7, 28
  %9 = lshr i32 675553809, %8
  %10 = and i32 %9, 15
  %11 = ptrtoint ptr %.val3 to i64
  %12 = add nsw i32 %10, -1
  %13 = sext i32 %12 to i64
  %14 = and i64 %13, %11
  %15 = icmp eq i64 %14, 0
  br i1 %15, label %19, label %16

16:                                               ; preds = %5, %3
  invoke void @_ZNK2cv3Mat5cloneEv(ptr dead_on_unwind writable sret(%"class.cv::Mat") align 8 %0, ptr noundef nonnull align 8 dereferenceable(96) %4)
          to label %20 unwind label %17

17:                                               ; preds = %16
  %18 = landingpad { ptr, i32 }
          cleanup
  call void @_ZN2cv3MatD1Ev(ptr noundef nonnull align 8 dereferenceable(96) %4) #25
  call void @llvm.lifetime.end.p0(i64 96, ptr nonnull %4) #25
  resume { ptr, i32 } %18

19:                                               ; preds = %5
  call void @_ZN2cv3MatC1EOS0_(ptr noundef nonnull align 8 dereferenceable(96) %0, ptr noundef nonnull align 8 dereferenceable(96) %4) #25
  br label %20

20:                                               ; preds = %16, %19
  call void @_ZN2cv3MatD1Ev(ptr noundef nonnull align 8 dereferenceable(96) %4) #25
  call void @llvm.lifetime.end.p0(i64 96, ptr nonnull %4) #25
  ret void
}